target datalayout = "e-m:e-p270:32:32-p271:32:32-p272:64:64-i64:64-i128:128-f80:128-n8:16:32:64-S128"
target triple = "x86_64-pc-linux-gnu"

%"class.llvm::ArrayRef" = type { ptr, i64 }
%"class.std::initializer_list" = type { ptr, i64 }
%"class.llvm::opt::OptSpecifier" = type { i32 }

; Function Attrs: mustprogress nounwind uwtable
define linkonce_odr hidden noundef i64 @_ZNKSt16initializer_listIN4llvm3opt12OptSpecifierEE4sizeEv(ptr noundef nonnull align 8 dereferenceable(16) %0) #0 comdat align 2 {
  %2 = alloca ptr, align 8
  store ptr %0, ptr %2, align 8
  %3 = load ptr, ptr %2, align 8
  %4 = getelementptr inbounds nuw %"class.std::initializer_list", ptr %3, i32 0, i32 1
  %5 = load i64, ptr %4, align 8
  ret i64 %5
}

; Function Attrs: mustprogress nounwind uwtable
define linkonce_odr hidden noundef ptr @_ZNKSt16initializer_listIN4llvm3opt12OptSpecifierEE3endEv(ptr noundef nonnull align 8 dereferenceable(16) %0) #0 comdat align 2 {
  %2 = alloca ptr, align 8
  store ptr %0, ptr %2, align 8
  %3 = load ptr, ptr %2, align 8
  %4 = call noundef ptr @_ZNKSt16initializer_listIN4llvm3opt12OptSpecifierEE5beginEv(ptr noundef nonnull align 8 dereferenceable(16) %3) #10
  %5 = call noundef i64 @_ZNKSt16initializer_listIN4llvm3opt12OptSpecifierEE4sizeEv(ptr noundef nonnull align 8 dereferenceable(16) %3) #10
  %6 = getelementptr inbounds %"class.llvm::opt::OptSpecifier", ptr %4, i64 %5
  ret ptr %6
}

; Function Attrs: mustprogress nounwind uwtable
define linkonce_odr hidden noundef ptr @_ZNKSt16initializer_listIN4llvm3opt12OptSpecifierEE5beginEv(ptr noundef nonnull align 8 dereferenceable(16) %0) #0 comdat align 2 {
  %2 = alloca ptr, align 8
  store ptr %0, ptr %2, align 8
  %3 = load ptr, ptr %2, align 8
  %4 = getelementptr inbounds nuw %"class.std::initializer_list", ptr %3, i32 0, i32 0
  %5 = load ptr, ptr %4, align 8
  ret ptr %5
}

; Function Attrs: mustprogress nounwind uwtable
define linkonce_odr hidden void @_ZN4llvm8ArrayRefINS_3opt12OptSpecifierEEC2ERKSt16initializer_listIS2_E(ptr noundef nonnull align 8 dereferenceable(16) %0, ptr noundef nonnull align 8 dereferenceable(16) %1) unnamed_addr #0 comdat align 2 {
  %3 = alloca ptr, align 8
  %4 = alloca ptr, align 8
  store ptr %0, ptr %3, align 8
  store ptr %1, ptr %4, align 8
  %5 = load ptr, ptr %3, align 8
  %6 = getelementptr inbounds nuw %"class.llvm::ArrayRef", ptr %5, i32 0, i32 0
  %7 = load ptr, ptr %4, align 8
  %8 = call noundef ptr @_ZNKSt16initializer_listIN4llvm3opt12OptSpecifierEE5beginEv(ptr noundef nonnull align 8 dereferenceable(16) %7) #10
  %9 = load ptr, ptr %4, align 8
  %10 = call noundef ptr @_ZNKSt16initializer_listIN4llvm3opt12OptSpecifierEE3endEv(ptr noundef nonnull align 8 dereferenceable(16) %9) #10
  %11 = icmp eq ptr %8, %10
  br i1 %11, label %12, label %13

12:                                               ; preds = %2
  br label %16

13:                                               ; preds = %2
  %14 = load ptr, ptr %4, align 8
  %15 = call noundef ptr @_ZNKSt16initializer_listIN4llvm3opt12OptSpecifierEE5beginEv(ptr noundef nonnull align 8 dereferenceable(16) %14) #10
  br label %16

16:                                               ; preds = %13, %12
  %17 = phi ptr [ null, %12 ], [ %15, %13 ]
  store ptr %17, ptr %6, align 8
  %18 = getelementptr inbounds nuw %"class.llvm::ArrayRef", ptr %5, i32 0, i32 1
  %19 = load ptr, ptr %4, align 8
  %20 = call noundef i64 @_ZNKSt16initializer_listIN4llvm3opt12OptSpecifierEE4sizeEv(ptr noundef nonnull align 8 dereferenceable(16) %19) #10
  store i64 %20, ptr %18, align 8
  ret void
}

; Function Attrs: mustprogress nounwind uwtable
define linkonce_odr hidden void @_ZN4llvm3opt12OptSpecifierC2Ej(ptr noundef nonnull align 4 dereferenceable(4) %0, i32 noundef %1) unnamed_addr #0 comdat align 2 {
  %3 = alloca ptr, align 8
  %4 = alloca i32, align 4
  store ptr %0, ptr %3, align 8
  store i32 %1, ptr %4, align 4
  %5 = load ptr, ptr %3, align 8
  %6 = getelementptr inbounds nuw %"class.llvm::opt::OptSpecifier", ptr %5, i32 0, i32 0
  %7 = load i32, ptr %4, align 4
  store i32 %7, ptr %6, align 4
  ret void
}

; Function Attrs: mustprogress nounwind uwtable
define hidden void @_ZNK5clang6driver5tools5Flang23addPreprocessingOptionsERKN4llvm3opt7ArgListERNS3_11SmallVectorIPKcLj16EEE(ptr noundef nonnull align 8 dereferenceable(32) %0, ptr noundef nonnull align 8 dereferenceable(176) %1, ptr noundef nonnull align 8 dereferenceable(144) %2) #0 align 2 {
  %4 = alloca ptr, align 8
  %5 = alloca ptr, align 8
  %6 = alloca ptr, align 8
  %7 = alloca %"class.llvm::ArrayRef", align 8
  %8 = alloca %"class.std::initializer_list", align 8
  %9 = alloca [6 x %"class.llvm::opt::OptSpecifier"], align 4
  store ptr %0, ptr %4, align 8
  store ptr %1, ptr %5, align 8
  store ptr %2, ptr %6, align 8
  %10 = load ptr, ptr %5, align 8
  %11 = load ptr, ptr %6, align 8
  call void @_ZN4llvm3opt12OptSpecifierC2Ej(ptr noundef nonnull align 4 dereferenceable(4) %9, i32 noundef 3062)
  %12 = getelementptr inbounds %"class.llvm::opt::OptSpecifier", ptr %9, i64 1
  call void @_ZN4llvm3opt12OptSpecifierC2Ej(ptr noundef nonnull align 4 dereferenceable(4) %12, i32 noundef 325)
  %13 = getelementptr inbounds %"class.llvm::opt::OptSpecifier", ptr %9, i64 2
  call void @_ZN4llvm3opt12OptSpecifierC2Ej(ptr noundef nonnull align 4 dereferenceable(4) %13, i32 noundef 3238)
  %14 = getelementptr inbounds %"class.llvm::opt::OptSpecifier", ptr %9, i64 3
  call void @_ZN4llvm3opt12OptSpecifierC2Ej(ptr noundef nonnull align 4 dereferenceable(4) %14, i32 noundef 2086)
  %15 = getelementptr inbounds %"class.llvm::opt::OptSpecifier", ptr %9, i64 4
  call void @_ZN4llvm3opt12OptSpecifierC2Ej(ptr noundef nonnull align 4 dereferenceable(4) %15, i32 noundef 238)
  %16 = getelementptr inbounds %"class.llvm::opt::OptSpecifier", ptr %9, i64 5
  call void @_ZN4llvm3opt12OptSpecifierC2Ej(ptr noundef nonnull align 4 dereferenceable(4) %16, i32 noundef 2903)
  %17 = getelementptr inbounds nuw %"class.std::initializer_list", ptr %8, i32 0, i32 0
  store ptr %9, ptr %17, align 8
  %18 = getelementptr inbounds nuw %"class.std::initializer_list", ptr %8, i32 0, i32 1
  store i64 6, ptr %18, align 8
  call void @_ZN4llvm8ArrayRefINS_3opt12OptSpecifierEEC2ERKSt16initializer_listIS2_E(ptr noundef nonnull align 8 dereferenceable(16) %7, ptr noundef nonnull align 8 dereferenceable(16) %8)
  %19 = getelementptr inbounds nuw { ptr, i64 }, ptr %7, i32 0, i32 0
  %20 = load ptr, ptr %19, align 8
  %21 = getelementptr inbounds nuw { ptr, i64 }, ptr %7, i32 0, i32 1
  %22 = load i64, ptr %21, align 8
  call void @_ZNK4llvm3opt7ArgList10addAllArgsERNS_11SmallVectorIPKcLj16EEENS_8ArrayRefINS0_12OptSpecifierEEE(ptr noundef nonnull align 8 dereferenceable(176) %10, ptr noundef nonnull align 8 dereferenceable(144) %11, ptr %20, i64 %22)
  ret void
}