; Function Attrs: mustprogress nounwind uwtable
define hidden void @_ZNK5clang6driver5tools5Flang23addPreprocessingOptionsERKN4llvm3opt7ArgListERNS3_11SmallVectorIPKcLj16EEE(ptr nocapture noundef nonnull readnone align 8 dereferenceable(32) %0, ptr noundef nonnull align 8 dereferenceable(176) %1, ptr noundef nonnull align 8 dereferenceable(144) %2) local_unnamed_addr #0 align 2 {
  %4 = alloca [6 x %"class.llvm::opt::OptSpecifier"], align 4
  store i32 3062, ptr %4, align 4
  %5 = getelementptr inbounds i8, ptr %4, i64 4
  store i32 325, ptr %5, align 4
  %6 = getelementptr inbounds i8, ptr %4, i64 8
  store i32 3238, ptr %6, align 4
  %7 = getelementptr inbounds i8, ptr %4, i64 12
  store i32 2086, ptr %7, align 4
  %8 = getelementptr inbounds i8, ptr %4, i64 16
  store i32 238, ptr %8, align 4
  %9 = getelementptr inbounds i8, ptr %4, i64 20
  store i32 2903, ptr %9, align 4
  call void @_ZNK4llvm3opt7ArgList10addAllArgsERNS_11SmallVectorIPKcLj16EEENS_8ArrayRefINS0_12OptSpecifierEEE(ptr noundef nonnull align 8 dereferenceable(176) %1, ptr noundef nonnull align 8 dereferenceable(144) %2, ptr nonnull %4, i64 6) #15
  ret void
}